target datalayout = "e-m:e-p270:32:32-p271:32:32-p272:64:64-i64:64-i128:128-f80:128-n8:16:32:64-S128"
target triple = "x86_64-pc-linux-gnu"

%struct._typeobject = type { %struct.PyVarObject, ptr, i64, i64, ptr, i64, ptr, ptr, ptr, ptr, ptr, ptr, ptr, ptr, ptr, ptr, ptr, ptr, ptr, i64, ptr, ptr, ptr, ptr, i64, ptr, ptr, ptr, ptr, ptr, ptr, ptr, ptr, ptr, i64, ptr, ptr, ptr, ptr, ptr, ptr, ptr, ptr, ptr, ptr, ptr, i32, ptr, ptr, i8, i16 }
%struct.PyVarObject = type { %struct._object, i64 }
%struct._object = type { %union.anon, ptr }
%union.anon = type { i64 }
%struct._ts = type { ptr, ptr, ptr, i64, %struct.anon.805, i32, i32, i32, i32, i32, i32, i32, i32, ptr, ptr, ptr, ptr, ptr, ptr, ptr, ptr, i32, ptr, i64, i64, ptr, i64, i32, ptr, ptr, ptr, i64, i64, ptr, ptr, ptr, %struct._err_stackitem, ptr, i64, ptr, ptr }
%struct.anon.805 = type { i32 }
%struct._err_stackitem = type { ptr, ptr }
%struct.wrapperobject = type { %struct._object, ptr, ptr }
%struct.anon = type { i32, i32 }

; Function Attrs: alwaysinline nounwind uwtable
define internal i32 @_Py_IsImmortal(ptr noundef %0) #4 {
  %2 = alloca ptr, align 8
  store ptr %0, ptr %2, align 8, !tbaa !4
  %3 = load ptr, ptr %2, align 8, !tbaa !4
  %4 = getelementptr inbounds nuw %struct._object, ptr %3, i32 0, i32 0
  %5 = getelementptr inbounds nuw %struct.anon, ptr %4, i32 0, i32 0
  %6 = load i32, ptr %5, align 8, !tbaa !159
  %7 = icmp slt i32 %6, 0
  %8 = zext i1 %7 to i32
  ret i32 %8
}

; Function Attrs: alwaysinline nounwind uwtable
define internal void @Py_DECREF(ptr noundef %0) #4 {
  %2 = alloca ptr, align 8
  store ptr %0, ptr %2, align 8, !tbaa !4
  %3 = load ptr, ptr %2, align 8, !tbaa !4
  %4 = call i32 @_Py_IsImmortal(ptr noundef %3)
  %5 = icmp ne i32 %4, 0
  br i1 %5, label %6, label %7

6:                                                ; preds = %1
  br label %16

7:                                                ; preds = %1
  %8 = load ptr, ptr %2, align 8, !tbaa !4
  %9 = getelementptr inbounds nuw %struct._object, ptr %8, i32 0, i32 0
  %10 = getelementptr inbounds nuw %struct.anon, ptr %9, i32 0, i32 0
  %11 = load i32, ptr %10, align 8, !tbaa !159
  %12 = add i32 %11, -1
  store i32 %12, ptr %10, align 8, !tbaa !159
  %13 = icmp eq i32 %12, 0
  br i1 %13, label %14, label %16

14:                                               ; preds = %7
  %15 = load ptr, ptr %2, align 8, !tbaa !4
  call void @_Py_Dealloc(ptr noundef %15)
  br label %16

16:                                               ; preds = %6, %14, %7
  ret void
}

; Function Attrs: inlinehint nounwind uwtable
define internal void @Py_XDECREF(ptr noundef %0) #3 {
  %2 = alloca ptr, align 8
  store ptr %0, ptr %2, align 8, !tbaa !4
  %3 = load ptr, ptr %2, align 8, !tbaa !4
  %4 = icmp ne ptr %3, null
  br i1 %4, label %5, label %7

5:                                                ; preds = %1
  %6 = load ptr, ptr %2, align 8, !tbaa !4
  call void @Py_DECREF(ptr noundef %6)
  br label %7

7:                                                ; preds = %5, %1
  ret void
}

; Function Attrs: inlinehint nounwind uwtable
define internal ptr @_Py_TYPE(ptr noundef %0) #3 {
  %2 = alloca ptr, align 8
  store ptr %0, ptr %2, align 8, !tbaa !4
  %3 = load ptr, ptr %2, align 8, !tbaa !4
  %4 = getelementptr inbounds nuw %struct._object, ptr %3, i32 0, i32 1
  %5 = load ptr, ptr %4, align 8, !tbaa !64
  ret ptr %5
}

; Function Attrs: nounwind uwtable
define internal void @wrapper_dealloc(ptr noundef %0) #0 {
  %2 = alloca ptr, align 8
  %3 = alloca ptr, align 8
  %4 = alloca ptr, align 8
  %5 = alloca i32, align 4
  store ptr %0, ptr %2, align 8, !tbaa !4
  call void @llvm.lifetime.start.p0(i64 8, ptr %3) #6
  %6 = load ptr, ptr %2, align 8, !tbaa !4
  store ptr %6, ptr %3, align 8, !tbaa !9
  %7 = load ptr, ptr %3, align 8, !tbaa !9
  call void @PyObject_GC_UnTrack(ptr noundef %7)
  br label %8

8:                                                ; preds = %1
  call void @llvm.lifetime.start.p0(i64 8, ptr %4) #6
  %9 = call ptr @PyThreadState_Get()
  store ptr %9, ptr %4, align 8, !tbaa !50
  %10 = load ptr, ptr %4, align 8, !tbaa !50
  %11 = getelementptr inbounds nuw %struct._ts, ptr %10, i32 0, i32 9
  %12 = load i32, ptr %11, align 4, !tbaa !146
  %13 = icmp sle i32 %12, 50
  br i1 %13, label %14, label %23

14:                                               ; preds = %8
  %15 = load ptr, ptr %3, align 8, !tbaa !9
  %16 = call ptr @_Py_TYPE(ptr noundef %15)
  %17 = getelementptr inbounds nuw %struct._typeobject, ptr %16, i32 0, i32 4
  %18 = load ptr, ptr %17, align 8, !tbaa !147
  %19 = icmp eq ptr %18, @wrapper_dealloc
  br i1 %19, label %20, label %23

20:                                               ; preds = %14
  %21 = load ptr, ptr %4, align 8, !tbaa !50
  %22 = load ptr, ptr %3, align 8, !tbaa !9
  call void @_PyTrash_thread_deposit_object(ptr noundef %21, ptr noundef %22)
  store i32 2, ptr %5, align 4
  br label %51

23:                                               ; preds = %14, %8
  %24 = load ptr, ptr %4, align 8, !tbaa !50
  %25 = getelementptr inbounds nuw %struct._ts, ptr %24, i32 0, i32 9
  %26 = load i32, ptr %25, align 4, !tbaa !146
  %27 = add i32 %26, -1
  store i32 %27, ptr %25, align 4, !tbaa !146
  %28 = load ptr, ptr %3, align 8, !tbaa !9
  %29 = getelementptr inbounds nuw %struct.wrapperobject, ptr %28, i32 0, i32 1
  %30 = load ptr, ptr %29, align 8, !tbaa !148
  call void @Py_XDECREF(ptr noundef %30)
  %31 = load ptr, ptr %3, align 8, !tbaa !9
  %32 = getelementptr inbounds nuw %struct.wrapperobject, ptr %31, i32 0, i32 2
  %33 = load ptr, ptr %32, align 8, !tbaa !150
  call void @Py_XDECREF(ptr noundef %33)
  %34 = load ptr, ptr %3, align 8, !tbaa !9
  call void @PyObject_GC_Del(ptr noundef %34)
  %35 = load ptr, ptr %4, align 8, !tbaa !50
  %36 = getelementptr inbounds nuw %struct._ts, ptr %35, i32 0, i32 9
  %37 = load i32, ptr %36, align 4, !tbaa !146
  %38 = add i32 %37, 1
  store i32 %38, ptr %36, align 4, !tbaa !146
  %39 = load ptr, ptr %4, align 8, !tbaa !50
  %40 = getelementptr inbounds nuw %struct._ts, ptr %39, i32 0, i32 25
  %41 = load ptr, ptr %40, align 8, !tbaa !151
  %42 = icmp ne ptr %41, null
  br i1 %42, label %43, label %50

43:                                               ; preds = %23
  %44 = load ptr, ptr %4, align 8, !tbaa !50
  %45 = getelementptr inbounds nuw %struct._ts, ptr %44, i32 0, i32 9
  %46 = load i32, ptr %45, align 4, !tbaa !146
  %47 = icmp sgt i32 %46, 100
  br i1 %47, label %48, label %50

48:                                               ; preds = %43
  %49 = load ptr, ptr %4, align 8, !tbaa !50
  call void @_PyTrash_thread_destroy_chain(ptr noundef %49)
  br label %50

50:                                               ; preds = %48, %43, %23
  store i32 0, ptr %5, align 4
  br label %51

51:                                               ; preds = %50, %20
  call void @llvm.lifetime.end.p0(i64 8, ptr %4) #6
  %52 = load i32, ptr %5, align 4
  switch i32 %52, label %56 [
    i32 0, label %53
    i32 2, label %55
  ]

53:                                               ; preds = %51
  br label %54

54:                                               ; preds = %53
  br label %55

55:                                               ; preds = %54, %51
  call void @llvm.lifetime.end.p0(i64 8, ptr %3) #6
  ret void

56:                                               ; preds = %51
  unreachable
}