; Function Attrs: nounwind uwtable
define internal void @wrapper_dealloc(ptr noundef %0) #0 {
  tail call void @PyObject_GC_UnTrack(ptr noundef %0) #9
  %2 = tail call ptr @PyThreadState_Get() #9
  %3 = getelementptr inbounds nuw i8, ptr %2, i64 52
  %4 = load i32, ptr %3, align 4, !tbaa !144
  %5 = icmp slt i32 %4, 51
  br i1 %5, label %6, label %12

6:                                                ; preds = %1
  %7 = getelementptr i8, ptr %0, i64 8
  %.val = load ptr, ptr %7, align 8, !tbaa !19
  %8 = getelementptr inbounds nuw i8, ptr %.val, i64 48
  %9 = load ptr, ptr %8, align 8, !tbaa !150
  %10 = icmp eq ptr %9, @wrapper_dealloc
  br i1 %10, label %11, label %12

11:                                               ; preds = %6
  tail call void @_PyTrash_thread_deposit_object(ptr noundef nonnull %2, ptr noundef nonnull %0) #9
  br label %36

12:                                               ; preds = %6, %1
  %13 = add i32 %4, -1
  store i32 %13, ptr %3, align 4, !tbaa !144
  %14 = getelementptr inbounds nuw i8, ptr %0, i64 16
  %15 = load ptr, ptr %14, align 8, !tbaa !60
  %.not.i = icmp eq ptr %15, null
  br i1 %.not.i, label %Py_XDECREF.exit, label %16

16:                                               ; preds = %12
  %17 = load i32, ptr %15, align 8, !tbaa !16
  %.not.i.i = icmp sgt i32 %17, -1
  br i1 %.not.i.i, label %18, label %Py_XDECREF.exit

18:                                               ; preds = %16
  %19 = add nsw i32 %17, -1
  store i32 %19, ptr %15, align 8, !tbaa !16
  %20 = icmp eq i32 %19, 0
  br i1 %20, label %21, label %Py_XDECREF.exit

21:                                               ; preds = %18
  tail call void @_Py_Dealloc(ptr noundef nonnull %15) #9
  br label %Py_XDECREF.exit

Py_XDECREF.exit:                                  ; preds = %12, %16, %18, %21
  %22 = getelementptr inbounds nuw i8, ptr %0, i64 24
  %23 = load ptr, ptr %22, align 8, !tbaa !62
  %.not.i14 = icmp eq ptr %23, null
  br i1 %.not.i14, label %Py_XDECREF.exit16, label %24

24:                                               ; preds = %Py_XDECREF.exit
  %25 = load i32, ptr %23, align 8, !tbaa !16
  %.not.i.i15 = icmp sgt i32 %25, -1
  br i1 %.not.i.i15, label %26, label %Py_XDECREF.exit16

26:                                               ; preds = %24
  %27 = add nsw i32 %25, -1
  store i32 %27, ptr %23, align 8, !tbaa !16
  %28 = icmp eq i32 %27, 0
  br i1 %28, label %29, label %Py_XDECREF.exit16

29:                                               ; preds = %26
  tail call void @_Py_Dealloc(ptr noundef nonnull %23) #9
  br label %Py_XDECREF.exit16

Py_XDECREF.exit16:                                ; preds = %Py_XDECREF.exit, %24, %26, %29
  tail call void @PyObject_GC_Del(ptr noundef nonnull %0) #9
  %30 = load i32, ptr %3, align 4, !tbaa !144
  %31 = add i32 %30, 1
  store i32 %31, ptr %3, align 4, !tbaa !144
  %32 = getelementptr inbounds nuw i8, ptr %2, i64 168
  %33 = load ptr, ptr %32, align 8, !tbaa !151
  %.not = icmp ne ptr %33, null
  %34 = icmp sgt i32 %31, 100
  %or.cond = select i1 %.not, i1 %34, i1 false
  br i1 %or.cond, label %35, label %36

35:                                               ; preds = %Py_XDECREF.exit16
  tail call void @_PyTrash_thread_destroy_chain(ptr noundef nonnull %2) #9
  br label %36

36:                                               ; preds = %Py_XDECREF.exit16, %35, %11
  ret void
}